; Function Attrs: mustprogress nounwind uwtable
define internal fastcc void @_ZN12_GLOBAL__N_111StmtPrinter34VisitOMPCancellationPointDirectiveEPN5clang29OMPCancellationPointDirectiveE(ptr noundef nonnull align 8 dereferenceable(80) %0, ptr noundef readonly captures(none) %1) unnamed_addr #0 align 2 {
  %3 = getelementptr inbounds nuw i8, ptr %0, i64 8
  %4 = load i32, ptr %3, align 8
  %5 = icmp sgt i32 %4, 0
  br i1 %5, label %.lr.ph.i, label %_ZN12_GLOBAL__N_111StmtPrinter6IndentEi.exit

.lr.ph.i:                                         ; preds = %2, %_ZN4llvm11raw_ostreamlsEPKc.exit.i
  %.04.i = phi i32 [ %20, %_ZN4llvm11raw_ostreamlsEPKc.exit.i ], [ 0, %2 ]
  %6 = load ptr, ptr %0, align 8
  %7 = getelementptr inbounds nuw i8, ptr %6, i64 24
  %8 = load ptr, ptr %7, align 8
  %9 = getelementptr inbounds nuw i8, ptr %6, i64 32
  %10 = load ptr, ptr %9, align 8
  %11 = ptrtoint ptr %8 to i64
  %12 = ptrtoint ptr %10 to i64
  %13 = sub i64 %11, %12
  %14 = icmp ult i64 %13, 2
  br i1 %14, label %15, label %17

15:                                               ; preds = %.lr.ph.i
  %16 = tail call noundef nonnull align 8 dereferenceable(48) ptr @_ZN4llvm11raw_ostream5writeEPKcm(ptr noundef nonnull align 8 dereferenceable(48) %6, ptr noundef nonnull @.str.3, i64 noundef 2) #19
  br label %_ZN4llvm11raw_ostreamlsEPKc.exit.i

17:                                               ; preds = %.lr.ph.i
  store i16 8224, ptr %10, align 1
  %18 = load ptr, ptr %9, align 8
  %19 = getelementptr inbounds nuw i8, ptr %18, i64 2
  store ptr %19, ptr %9, align 8
  br label %_ZN4llvm11raw_ostreamlsEPKc.exit.i

_ZN4llvm11raw_ostreamlsEPKc.exit.i:               ; preds = %17, %15
  %20 = add nuw nsw i32 %.04.i, 1
  %exitcond.not.i = icmp eq i32 %20, %4
  br i1 %exitcond.not.i, label %_ZN12_GLOBAL__N_111StmtPrinter6IndentEi.exit, label %.lr.ph.i, !llvm.loop !16

_ZN12_GLOBAL__N_111StmtPrinter6IndentEi.exit:     ; preds = %_ZN4llvm11raw_ostreamlsEPKc.exit.i, %2
  %21 = load ptr, ptr %0, align 8
  %22 = getelementptr inbounds nuw i8, ptr %21, i64 24
  %23 = load ptr, ptr %22, align 8
  %24 = getelementptr inbounds nuw i8, ptr %21, i64 32
  %25 = load ptr, ptr %24, align 8
  %26 = ptrtoint ptr %23 to i64
  %27 = ptrtoint ptr %25 to i64
  %28 = sub i64 %26, %27
  %29 = icmp ult i64 %28, 31
  br i1 %29, label %30, label %32

30:                                               ; preds = %_ZN12_GLOBAL__N_111StmtPrinter6IndentEi.exit
  %31 = tail call noundef nonnull align 8 dereferenceable(48) ptr @_ZN4llvm11raw_ostream5writeEPKcm(ptr noundef nonnull align 8 dereferenceable(48) %21, ptr noundef nonnull @.str.341, i64 noundef 31) #19
  br label %_ZN4llvm11raw_ostreamlsEPKc.exit

32:                                               ; preds = %_ZN12_GLOBAL__N_111StmtPrinter6IndentEi.exit
  tail call void @llvm.memcpy.p0.p0.i64(ptr noundef nonnull align 1 dereferenceable(31) %25, ptr noundef nonnull align 1 dereferenceable(31) @.str.341, i64 31, i1 false)
  %33 = load ptr, ptr %24, align 8
  %34 = getelementptr inbounds nuw i8, ptr %33, i64 31
  store ptr %34, ptr %24, align 8
  br label %_ZN4llvm11raw_ostreamlsEPKc.exit

_ZN4llvm11raw_ostreamlsEPKc.exit:                 ; preds = %30, %32
  %.0.i.i = phi ptr [ %31, %30 ], [ %21, %32 ]
  %35 = getelementptr inbounds nuw i8, ptr %1, i64 32
  %36 = load i32, ptr %35, align 8
  %37 = tail call { ptr, i64 } @_ZN4llvm3omp22getOpenMPDirectiveNameENS0_9DirectiveE(i32 noundef %36) #19
  %38 = extractvalue { ptr, i64 } %37, 0
  %39 = extractvalue { ptr, i64 } %37, 1
  %40 = getelementptr inbounds nuw i8, ptr %.0.i.i, i64 24
  %41 = load ptr, ptr %40, align 8
  %42 = getelementptr inbounds nuw i8, ptr %.0.i.i, i64 32
  %43 = load ptr, ptr %42, align 8
  %44 = ptrtoint ptr %41 to i64
  %45 = ptrtoint ptr %43 to i64
  %46 = sub i64 %44, %45
  %47 = icmp ugt i64 %39, %46
  br i1 %47, label %48, label %50

48:                                               ; preds = %_ZN4llvm11raw_ostreamlsEPKc.exit
  %49 = tail call noundef nonnull align 8 dereferenceable(48) ptr @_ZN4llvm11raw_ostream5writeEPKcm(ptr noundef nonnull align 8 dereferenceable(48) %.0.i.i, ptr noundef %38, i64 noundef %39) #19
  br label %_ZN4llvm11raw_ostreamlsENS_9StringRefE.exit

50:                                               ; preds = %_ZN4llvm11raw_ostreamlsEPKc.exit
  %.not.i = icmp eq i64 %39, 0
  br i1 %.not.i, label %_ZN4llvm11raw_ostreamlsENS_9StringRefE.exit, label %51

51:                                               ; preds = %50
  tail call void @llvm.memcpy.p0.p0.i64(ptr align 1 %43, ptr align 1 %38, i64 %39, i1 false)
  %52 = load ptr, ptr %42, align 8
  %53 = getelementptr inbounds i8, ptr %52, i64 %39
  store ptr %53, ptr %42, align 8
  br label %_ZN4llvm11raw_ostreamlsENS_9StringRefE.exit

_ZN4llvm11raw_ostreamlsENS_9StringRefE.exit:      ; preds = %48, %50, %51
  tail call fastcc void @_ZN12_GLOBAL__N_111StmtPrinter27PrintOMPExecutableDirectiveEPN5clang22OMPExecutableDirectiveEb(ptr noundef nonnull align 8 dereferenceable(80) %0, ptr noundef nonnull %1, i1 noundef zeroext false)
  ret void
}